target datalayout = "e-m:e-p270:32:32-p271:32:32-p272:64:64-i64:64-i128:128-f80:128-n8:16:32:64-S128"
target triple = "x86_64-pc-linux-gnu"

; Function Attrs: nounwind uwtable
define internal i32 @waitfd(ptr noundef %0) #0 {
  %2 = alloca i32, align 4
  %3 = alloca ptr, align 8
  %4 = alloca ptr, align 8
  %5 = alloca ptr, align 8
  %6 = alloca i32, align 4
  store ptr %0, ptr %3, align 8, !tbaa !17
  call void @llvm.lifetime.start.p0(i64 8, ptr %4) #4
  call void @llvm.lifetime.start.p0(i64 8, ptr %5) #4
  %7 = call ptr @ASYNC_get_current_job()
  store ptr %7, ptr %4, align 8, !tbaa !13
  %8 = load ptr, ptr %4, align 8, !tbaa !13
  %9 = icmp eq ptr %8, null
  br i1 %9, label %10, label %11

10:                                               ; preds = %1
  store i32 0, ptr %2, align 4
  store i32 1, ptr %6, align 4
  br label %45

11:                                               ; preds = %1
  %12 = load ptr, ptr %4, align 8, !tbaa !13
  %13 = call ptr @ASYNC_get_wait_ctx(ptr noundef %12)
  store ptr %13, ptr %5, align 8, !tbaa !15
  %14 = load ptr, ptr %5, align 8, !tbaa !15
  %15 = icmp eq ptr %14, null
  br i1 %15, label %16, label %17

16:                                               ; preds = %11
  store i32 0, ptr %2, align 4
  store i32 1, ptr %6, align 4
  br label %45

17:                                               ; preds = %11
  %18 = call i32 @ASYNC_pause_job()
  %19 = load ptr, ptr %5, align 8, !tbaa !15
  %20 = load ptr, ptr %5, align 8, !tbaa !15
  %21 = call i32 @ASYNC_WAIT_CTX_set_wait_fd(ptr noundef %19, ptr noundef %20, i32 noundef 99, ptr noundef null, ptr noundef null)
  %22 = icmp ne i32 %21, 0
  br i1 %22, label %24, label %23

23:                                               ; preds = %17
  store i32 0, ptr %2, align 4
  store i32 1, ptr %6, align 4
  br label %45

24:                                               ; preds = %17
  %25 = call i32 @ASYNC_pause_job()
  %26 = load ptr, ptr %5, align 8, !tbaa !15
  %27 = load ptr, ptr %5, align 8, !tbaa !15
  %28 = call i32 @ASYNC_WAIT_CTX_clear_fd(ptr noundef %26, ptr noundef %27)
  %29 = icmp ne i32 %28, 0
  br i1 %29, label %31, label %30

30:                                               ; preds = %24
  store i32 0, ptr %2, align 4
  store i32 1, ptr %6, align 4
  br label %45

31:                                               ; preds = %24
  %32 = call i32 @ASYNC_pause_job()
  %33 = load ptr, ptr %5, align 8, !tbaa !15
  %34 = load ptr, ptr %5, align 8, !tbaa !15
  %35 = call i32 @ASYNC_WAIT_CTX_set_wait_fd(ptr noundef %33, ptr noundef %34, i32 noundef 99, ptr noundef null, ptr noundef null)
  %36 = icmp ne i32 %35, 0
  br i1 %36, label %38, label %37

37:                                               ; preds = %31
  store i32 0, ptr %2, align 4
  store i32 1, ptr %6, align 4
  br label %45

38:                                               ; preds = %31
  %39 = load ptr, ptr %5, align 8, !tbaa !15
  %40 = load ptr, ptr %5, align 8, !tbaa !15
  %41 = call i32 @ASYNC_WAIT_CTX_clear_fd(ptr noundef %39, ptr noundef %40)
  %42 = icmp ne i32 %41, 0
  br i1 %42, label %44, label %43

43:                                               ; preds = %38
  store i32 0, ptr %2, align 4
  store i32 1, ptr %6, align 4
  br label %45

44:                                               ; preds = %38
  store i32 1, ptr %2, align 4
  store i32 1, ptr %6, align 4
  br label %45

45:                                               ; preds = %44, %43, %37, %30, %23, %16, %10
  call void @llvm.lifetime.end.p0(i64 8, ptr %5) #4
  call void @llvm.lifetime.end.p0(i64 8, ptr %4) #4
  %46 = load i32, ptr %2, align 4
  ret i32 %46
}