; Function Attrs: nounwind uwtable
define internal range(i32 0, 2) i32 @waitfd(ptr readnone captures(none) %0) #0 {
  %2 = tail call ptr @ASYNC_get_current_job() #5
  %3 = icmp eq ptr %2, null
  br i1 %3, label %18, label %4

4:                                                ; preds = %1
  %5 = tail call ptr @ASYNC_get_wait_ctx(ptr noundef nonnull %2) #5
  %6 = icmp eq ptr %5, null
  br i1 %6, label %18, label %7

7:                                                ; preds = %4
  %8 = tail call i32 @ASYNC_pause_job() #5
  %9 = tail call i32 @ASYNC_WAIT_CTX_set_wait_fd(ptr noundef nonnull %5, ptr noundef nonnull %5, i32 noundef 99, ptr noundef null, ptr noundef null) #5
  %.not = icmp eq i32 %9, 0
  br i1 %.not, label %18, label %10

10:                                               ; preds = %7
  %11 = tail call i32 @ASYNC_pause_job() #5
  %12 = tail call i32 @ASYNC_WAIT_CTX_clear_fd(ptr noundef nonnull %5, ptr noundef nonnull %5) #5
  %.not13 = icmp eq i32 %12, 0
  br i1 %.not13, label %18, label %13

13:                                               ; preds = %10
  %14 = tail call i32 @ASYNC_pause_job() #5
  %15 = tail call i32 @ASYNC_WAIT_CTX_set_wait_fd(ptr noundef nonnull %5, ptr noundef nonnull %5, i32 noundef 99, ptr noundef null, ptr noundef null) #5
  %.not14 = icmp eq i32 %15, 0
  br i1 %.not14, label %18, label %16

16:                                               ; preds = %13
  %17 = tail call i32 @ASYNC_WAIT_CTX_clear_fd(ptr noundef nonnull %5, ptr noundef nonnull %5) #5
  %.not15 = icmp ne i32 %17, 0
  %. = zext i1 %.not15 to i32
  br label %18

18:                                               ; preds = %16, %13, %10, %7, %4, %1
  %.0 = phi i32 [ 0, %1 ], [ 0, %4 ], [ 0, %7 ], [ 0, %10 ], [ 0, %13 ], [ %., %16 ]
  ret i32 %.0
}